target datalayout = "e-m:e-p270:32:32-p271:32:32-p272:64:64-i64:64-i128:128-f80:128-n8:16:32:64-S128"
target triple = "x86_64-pc-linux-gnu"

%"class.std::__1::basic_ios.base" = type <{ %"class.std::__1::ios_base", ptr, i32 }>
%"class.std::__1::ios_base" = type { ptr, i32, i64, i64, i32, i32, ptr, ptr, ptr, ptr, i64, i64, ptr, i64, i64, ptr, i64, i64 }
%"class.std::__1::fpos" = type { %struct.__mbstate_t, i64 }
%struct.__mbstate_t = type { i32, %union.anon }
%union.anon = type { i32 }
%"class.std::__1::basic_istream" = type { ptr, i64, %"class.std::__1::basic_ios.base" }

; Function Attrs: mustprogress nounwind uwtable
define linkonce_odr hidden noundef zeroext i1 @_ZNKSt3__18ios_base4failB8ne190000Ev(ptr noundef nonnull align 8 dereferenceable(136) %0) #1 comdat align 2 {
  %2 = alloca ptr, align 8
  store ptr %0, ptr %2, align 8
  %3 = load ptr, ptr %2, align 8
  %4 = getelementptr inbounds %"class.std::__1::ios_base", ptr %3, i32 0, i32 4
  %5 = load i32, ptr %4, align 8
  %6 = and i32 %5, 5
  %7 = icmp ne i32 %6, 0
  ret i1 %7
}

; Function Attrs: mustprogress uwtable
define linkonce_odr hidden noundef zeroext i1 @_ZNKSt3__19basic_iosIcNS_11char_traitsIcEEE4failB8ne190000Ev(ptr noundef nonnull align 8 dereferenceable(148) %0) #4 comdat align 2 {
  %2 = alloca ptr, align 8
  store ptr %0, ptr %2, align 8
  %3 = load ptr, ptr %2, align 8
  %4 = call noundef zeroext i1 @_ZNKSt3__18ios_base4failB8ne190000Ev(ptr noundef nonnull align 8 dereferenceable(136) %3)
  ret i1 %4
}

; Function Attrs: mustprogress nounwind uwtable
define linkonce_odr hidden void @_ZNSt3__14fposI11__mbstate_tEC2B8ne190000Ex(ptr noundef nonnull align 8 dereferenceable(16) %0, i64 noundef %1) unnamed_addr #1 comdat align 2 {
  %3 = alloca ptr, align 8
  %4 = alloca i64, align 8
  store ptr %0, ptr %3, align 8
  store i64 %1, ptr %4, align 8
  %5 = load ptr, ptr %3, align 8
  %6 = getelementptr inbounds %"class.std::__1::fpos", ptr %5, i32 0, i32 0
  call void @llvm.memset.p0.i64(ptr align 8 %6, i8 0, i64 8, i1 false)
  %7 = getelementptr inbounds %"class.std::__1::fpos", ptr %5, i32 0, i32 1
  %8 = load i64, ptr %4, align 8
  store i64 %8, ptr %7, align 8
  ret void
}

; Function Attrs: mustprogress uwtable
define linkonce_odr hidden void @_ZNSt3__19basic_iosIcNS_11char_traitsIcEEE5clearB8ne190000Ej(ptr noundef nonnull align 8 dereferenceable(148) %0, i32 noundef %1) #4 comdat align 2 {
  %3 = alloca ptr, align 8
  %4 = alloca i32, align 4
  store ptr %0, ptr %3, align 8
  store i32 %1, ptr %4, align 4
  %5 = load ptr, ptr %3, align 8
  %6 = load i32, ptr %4, align 4
  call void @_ZNSt3__18ios_base5clearEj(ptr noundef nonnull align 8 dereferenceable(136) %5, i32 noundef %6)
  ret void
}

; Function Attrs: mustprogress nounwind uwtable
define linkonce_odr hidden noundef i64 @_ZNKSt3__113basic_istreamIcNS_11char_traitsIcEEE6gcountB8ne190000Ev(ptr noundef nonnull align 8 dereferenceable(16) %0) #1 comdat align 2 {
  %2 = alloca ptr, align 8
  store ptr %0, ptr %2, align 8
  %3 = load ptr, ptr %2, align 8
  %4 = getelementptr inbounds %"class.std::__1::basic_istream", ptr %3, i32 0, i32 1
  %5 = load i64, ptr %4, align 8
  ret i64 %5
}

; Function Attrs: mustprogress uwtable
define linkonce_odr hidden noundef zeroext i1 @_ZNKSt3__19basic_iosIcNS_11char_traitsIcEEEntB8ne190000Ev(ptr noundef nonnull align 8 dereferenceable(148) %0) #4 comdat align 2 {
  %2 = alloca ptr, align 8
  store ptr %0, ptr %2, align 8
  %3 = load ptr, ptr %2, align 8
  %4 = call noundef zeroext i1 @_ZNKSt3__19basic_iosIcNS_11char_traitsIcEEE4failB8ne190000Ev(ptr noundef nonnull align 8 dereferenceable(148) %3)
  ret i1 %4
}

; Function Attrs: mustprogress uwtable
define dso_local noundef zeroext i1 @_ZNK3tev14ExrImageLoader11canLoadFileERNSt3__113basic_istreamIcNS1_11char_traitsIcEEEE(ptr noundef nonnull align 8 dereferenceable(8) %0, ptr noundef nonnull align 8 dereferenceable(16) %1) unnamed_addr #4 align 2 {
  %3 = alloca ptr, align 8
  %4 = alloca ptr, align 8
  %5 = alloca [4 x i8], align 1
  %6 = alloca i8, align 1
  %7 = alloca %"class.std::__1::fpos", align 8
  store ptr %0, ptr %3, align 8
  store ptr %1, ptr %4, align 8
  %8 = load ptr, ptr %4, align 8
  %9 = getelementptr inbounds [4 x i8], ptr %5, i64 0, i64 0
  %10 = call noundef nonnull align 8 dereferenceable(16) ptr @_ZNSt3__113basic_istreamIcNS_11char_traitsIcEEE4readEPcl(ptr noundef nonnull align 8 dereferenceable(16) %8, ptr noundef %9, i64 noundef 4)
  %11 = load ptr, ptr %4, align 8
  %12 = load ptr, ptr %11, align 8
  %13 = getelementptr i8, ptr %12, i64 -24
  %14 = load i64, ptr %13, align 8
  %15 = getelementptr inbounds i8, ptr %11, i64 %14
  %16 = call noundef zeroext i1 @_ZNKSt3__19basic_iosIcNS_11char_traitsIcEEEntB8ne190000Ev(ptr noundef nonnull align 8 dereferenceable(148) %15)
  br i1 %16, label %41, label %17

17:                                               ; preds = %2
  %18 = load ptr, ptr %4, align 8
  %19 = call noundef i64 @_ZNKSt3__113basic_istreamIcNS_11char_traitsIcEEE6gcountB8ne190000Ev(ptr noundef nonnull align 8 dereferenceable(16) %18)
  %20 = icmp eq i64 %19, 4
  br i1 %20, label %21, label %41

21:                                               ; preds = %17
  %22 = getelementptr inbounds [4 x i8], ptr %5, i64 0, i64 0
  %23 = load i8, ptr %22, align 1
  %24 = sext i8 %23 to i32
  %25 = icmp eq i32 %24, 118
  br i1 %25, label %26, label %41

26:                                               ; preds = %21
  %27 = getelementptr inbounds [4 x i8], ptr %5, i64 0, i64 1
  %28 = load i8, ptr %27, align 1
  %29 = sext i8 %28 to i32
  %30 = icmp eq i32 %29, 47
  br i1 %30, label %31, label %41

31:                                               ; preds = %26
  %32 = getelementptr inbounds [4 x i8], ptr %5, i64 0, i64 2
  %33 = load i8, ptr %32, align 1
  %34 = sext i8 %33 to i32
  %35 = icmp eq i32 %34, 49
  br i1 %35, label %36, label %41

36:                                               ; preds = %31
  %37 = getelementptr inbounds [4 x i8], ptr %5, i64 0, i64 3
  %38 = load i8, ptr %37, align 1
  %39 = sext i8 %38 to i32
  %40 = icmp eq i32 %39, 1
  br label %41

41:                                               ; preds = %36, %31, %26, %21, %17, %2
  %42 = phi i1 [ false, %31 ], [ false, %26 ], [ false, %21 ], [ false, %17 ], [ false, %2 ], [ %40, %36 ]
  %43 = zext i1 %42 to i8
  store i8 %43, ptr %6, align 1
  %44 = load ptr, ptr %4, align 8
  %45 = load ptr, ptr %44, align 8
  %46 = getelementptr i8, ptr %45, i64 -24
  %47 = load i64, ptr %46, align 8
  %48 = getelementptr inbounds i8, ptr %44, i64 %47
  call void @_ZNSt3__19basic_iosIcNS_11char_traitsIcEEE5clearB8ne190000Ej(ptr noundef nonnull align 8 dereferenceable(148) %48, i32 noundef 0)
  %49 = load ptr, ptr %4, align 8
  call void @_ZNSt3__14fposI11__mbstate_tEC2B8ne190000Ex(ptr noundef nonnull align 8 dereferenceable(16) %7, i64 noundef 0)
  %50 = getelementptr inbounds { i64, i64 }, ptr %7, i32 0, i32 0
  %51 = load i64, ptr %50, align 8
  %52 = getelementptr inbounds { i64, i64 }, ptr %7, i32 0, i32 1
  %53 = load i64, ptr %52, align 8
  %54 = call noundef nonnull align 8 dereferenceable(16) ptr @_ZNSt3__113basic_istreamIcNS_11char_traitsIcEEE5seekgENS_4fposI11__mbstate_tEE(ptr noundef nonnull align 8 dereferenceable(16) %49, i64 %51, i64 %53)
  %55 = load i8, ptr %6, align 1
  %56 = trunc i8 %55 to i1
  ret i1 %56
}