; Function Attrs: mustprogress uwtable
define dso_local noundef zeroext i1 @_ZNK3tev14ExrImageLoader11canLoadFileERNSt3__113basic_istreamIcNS1_11char_traitsIcEEEE(ptr nocapture nonnull readnone align 8 %0, ptr noundef nonnull align 8 dereferenceable(16) %1) unnamed_addr #3 align 2 {
  %3 = alloca [4 x i8], align 1
  %4 = call noundef nonnull align 8 dereferenceable(16) ptr @_ZNSt3__113basic_istreamIcNS_11char_traitsIcEEE4readEPcl(ptr noundef nonnull align 8 dereferenceable(16) %1, ptr noundef nonnull %3, i64 noundef 4)
  %5 = load ptr, ptr %1, align 8
  %6 = getelementptr i8, ptr %5, i64 -24
  %7 = load i64, ptr %6, align 8
  %8 = getelementptr inbounds i8, ptr %1, i64 %7
  %9 = getelementptr inbounds i8, ptr %8, i64 32
  %10 = load i32, ptr %9, align 8
  %11 = and i32 %10, 5
  %.not = icmp eq i32 %11, 0
  br i1 %.not, label %12, label %28

12:                                               ; preds = %2
  %13 = getelementptr inbounds i8, ptr %1, i64 8
  %14 = load i64, ptr %13, align 8
  %15 = icmp eq i64 %14, 4
  %16 = load i8, ptr %3, align 1
  %17 = icmp eq i8 %16, 118
  %or.cond = select i1 %15, i1 %17, i1 false
  %18 = getelementptr inbounds i8, ptr %3, i64 1
  %19 = load i8, ptr %18, align 1
  %20 = icmp eq i8 %19, 47
  %or.cond7 = select i1 %or.cond, i1 %20, i1 false
  %21 = getelementptr inbounds i8, ptr %3, i64 2
  %22 = load i8, ptr %21, align 1
  %23 = icmp eq i8 %22, 49
  %or.cond11 = select i1 %or.cond7, i1 %23, i1 false
  br i1 %or.cond11, label %24, label %28

24:                                               ; preds = %12
  %25 = getelementptr inbounds i8, ptr %3, i64 3
  %26 = load i8, ptr %25, align 1
  %27 = icmp eq i8 %26, 1
  br label %28

28:                                               ; preds = %24, %12, %2
  %29 = phi i1 [ false, %12 ], [ false, %2 ], [ %27, %24 ]
  call void @_ZNSt3__18ios_base5clearEj(ptr noundef nonnull align 8 dereferenceable(136) %8, i32 noundef 0)
  %30 = call noundef nonnull align 8 dereferenceable(16) ptr @_ZNSt3__113basic_istreamIcNS_11char_traitsIcEEE5seekgENS_4fposI11__mbstate_tEE(ptr noundef nonnull align 8 dereferenceable(16) %1, i64 0, i64 0)
  ret i1 %29
}